target datalayout = "e-m:e-p270:32:32-p271:32:32-p272:64:64-i64:64-i128:128-f80:128-n8:16:32:64-S128"
target triple = "x86_64-pc-linux-gnu"

%"class.std::__cxx11::basic_string" = type { %"struct.std::__cxx11::basic_string<char>::_Alloc_hider", i64, %union.anon }
%"struct.std::__cxx11::basic_string<char>::_Alloc_hider" = type { ptr }
%union.anon = type { i64, [8 x i8] }
%"class.cvc5::parser::Cmd" = type { ptr, ptr }
%"class.cvc5::parser::GetProofCommand" = type <{ %"class.cvc5::parser::Cmd", %"class.std::__cxx11::basic_string", i32, [4 x i8] }>

; Function Attrs: mustprogress uwtable
define void @_ZNK4cvc56parser15GetProofCommand8toStreamERSo(ptr noundef nonnull align 8 dereferenceable(52) %0, ptr noundef nonnull align 8 dereferenceable(8) %1) unnamed_addr #4 align 2 {
  %3 = alloca ptr, align 8
  %4 = alloca ptr, align 8
  store ptr %0, ptr %3, align 8, !tbaa !296
  store ptr %1, ptr %4, align 8, !tbaa !14
  %5 = load ptr, ptr %3, align 8
  %6 = load ptr, ptr %4, align 8, !tbaa !14
  %7 = call noundef ptr @_ZN4cvc58internal7Printer10getPrinterERSo(ptr noundef nonnull align 8 dereferenceable(8) %6)
  %8 = load ptr, ptr %4, align 8, !tbaa !14
  %9 = getelementptr inbounds nuw %"class.cvc5::parser::GetProofCommand", ptr %5, i32 0, i32 2
  %10 = load i32, ptr %9, align 8, !tbaa !300
  %11 = load ptr, ptr %7, align 8, !tbaa !12
  %12 = getelementptr inbounds ptr, ptr %11, i64 44
  %13 = load ptr, ptr %12, align 8
  call void %13(ptr noundef nonnull align 8 dereferenceable(8) %7, ptr noundef nonnull align 8 dereferenceable(8) %8, i32 noundef %10)
  ret void
}